(dp1
I0
Vchat_compliment
p2
sI1
Vchat_how_are_you
p3
sI2
Vchat_preferences
p4
sI3
Vchat_who_are_you
p5
sI4
Vgeneral_goodbye
p6
sI5
Vgeneral_greeting
p7
sI6
Vgeneral_negative_reaction
p8
sI7
Vgeneral_no
p9
sI8
Vgeneral_positive_reaction
p10
sI9
Vgeneral_yes
p11
sI10
Vinfo_help
p12
sI11
Vservice_joke
p13
sI12
Vservice_order_drink
p14
sI13
Vservice_order_specific_drink
p15
sI14
Vservice_pay_method
p16
sI15
Vservice_price
p17
sI16
Vservice_tell_drinklist
p18
s.